; Function Attrs: nofree norecurse nosync nounwind memory(argmem: readwrite) uwtable
define internal void @blend_frames16_c(ptr noundef readonly captures(none) %0, i64 noundef %1, ptr noundef readonly captures(none) %2, i64 noundef %3, ptr noundef writeonly captures(none) %4, i64 noundef %5, i64 noundef %6, i64 noundef %7, i32 noundef %8, i32 noundef %9, i32 noundef %10) #1 {
  %12 = sdiv i64 %6, 2
  %13 = sdiv i64 %1, 2
  %14 = sdiv i64 %3, 2
  %15 = sdiv i64 %5, 2
  %16 = icmp sgt i64 %7, 0
  %17 = icmp sgt i64 %6, 1
  %or.cond = and i1 %16, %17
  br i1 %or.cond, label %.preheader.us, label %._crit_edge41

.preheader.us:                                    ; preds = %11, %._crit_edge.us
  %indvars.iv45 = phi i64 [ %indvars.iv.next46, %._crit_edge.us ], [ 0, %11 ]
  %.040.us = phi ptr [ %33, %._crit_edge.us ], [ %2, %11 ]
  %.03139.us = phi ptr [ %32, %._crit_edge.us ], [ %0, %11 ]
  %.03238.us = phi ptr [ %34, %._crit_edge.us ], [ %4, %11 ]
  br label %18

18:                                               ; preds = %.preheader.us, %18
  %indvars.iv = phi i64 [ 0, %.preheader.us ], [ %indvars.iv.next, %18 ]
  %19 = getelementptr inbounds nuw i16, ptr %.03139.us, i64 %indvars.iv
  %20 = load i16, ptr %19, align 2, !tbaa !21
  %21 = zext i16 %20 to i32
  %22 = mul nsw i32 %8, %21
  %23 = getelementptr inbounds nuw i16, ptr %.040.us, i64 %indvars.iv
  %24 = load i16, ptr %23, align 2, !tbaa !21
  %25 = zext i16 %24 to i32
  %26 = mul nsw i32 %9, %25
  %27 = add i32 %22, %10
  %28 = add i32 %27, %26
  %29 = lshr i32 %28, 15
  %30 = trunc i32 %29 to i16
  %31 = getelementptr inbounds nuw i16, ptr %.03238.us, i64 %indvars.iv
  store i16 %30, ptr %31, align 2, !tbaa !21
  %indvars.iv.next = add nuw nsw i64 %indvars.iv, 1
  %exitcond.not = icmp eq i64 %indvars.iv.next, %12
  br i1 %exitcond.not, label %._crit_edge.us, label %18, !llvm.loop !23

._crit_edge.us:                                   ; preds = %18
  %32 = getelementptr inbounds i16, ptr %.03139.us, i64 %13
  %33 = getelementptr inbounds i16, ptr %.040.us, i64 %14
  %34 = getelementptr inbounds i16, ptr %.03238.us, i64 %15
  %indvars.iv.next46 = add nuw nsw i64 %indvars.iv45, 1
  %exitcond48.not = icmp eq i64 %indvars.iv.next46, %7
  br i1 %exitcond48.not, label %._crit_edge41, label %.preheader.us, !llvm.loop !24

._crit_edge41:                                    ; preds = %._crit_edge.us, %11
  ret void
}